; Function Attrs: mustprogress nofree norecurse nosync nounwind willreturn memory(argmem: readwrite) uwtable
define hidden noundef zeroext i1 @_ZNK11OpenImageIO6v3_1_05CSHA17GetHashEPh(ptr noundef nonnull readonly align 8 captures(none) dereferenceable(200) %0, ptr noundef writeonly %1) local_unnamed_addr #10 align 2 {
  %3 = icmp ne ptr %1, null
  br i1 %3, label %4, label %6

4:                                                ; preds = %2
  %5 = getelementptr inbounds nuw i8, ptr %0, i64 96
  tail call void @llvm.memcpy.p0.p0.i64(ptr noundef nonnull align 1 dereferenceable(20) %1, ptr noundef nonnull align 8 dereferenceable(20) %5, i64 20, i1 false)
  br label %6

6:                                                ; preds = %2, %4
  ret i1 %3
}